target datalayout = "e-m:e-p270:32:32-p271:32:32-p272:64:64-i64:64-i128:128-f80:128-n8:16:32:64-S128"
target triple = "x86_64-pc-linux-gnu"

%"class.std::__1::__shared_count" = type { ptr, i64 }
%"class.std::__1::shared_future" = type { ptr }

; Function Attrs: inlinehint mustprogress nounwind uwtable
define linkonce_odr hidden noundef i64 @_ZNSt3__134__libcpp_atomic_refcount_decrementB8ne210000IlEET_RS1_(ptr noundef nonnull align 8 dereferenceable(8) %0) #5 comdat {
  %2 = alloca ptr, align 8
  %3 = alloca i64, align 8
  %4 = alloca i64, align 8
  store ptr %0, ptr %2, align 8, !tbaa !99
  %5 = load ptr, ptr %2, align 8, !tbaa !99
  store i64 -1, ptr %3, align 8, !tbaa !77
  %6 = load i64, ptr %3, align 8
  %7 = atomicrmw add ptr %5, i64 %6 acq_rel, align 8
  %8 = add i64 %7, %6
  store i64 %8, ptr %4, align 8
  %9 = load i64, ptr %4, align 8, !tbaa !77
  ret i64 %9
}

; Function Attrs: inlinehint mustprogress nounwind uwtable
define linkonce_odr hidden noundef i64 @_ZNSt3__134__libcpp_atomic_refcount_incrementB8ne210000IlEET_RS1_(ptr noundef nonnull align 8 dereferenceable(8) %0) #5 comdat {
  %2 = alloca ptr, align 8
  %3 = alloca i64, align 8
  %4 = alloca i64, align 8
  store ptr %0, ptr %2, align 8, !tbaa !99
  %5 = load ptr, ptr %2, align 8, !tbaa !99
  store i64 1, ptr %3, align 8, !tbaa !77
  %6 = load i64, ptr %3, align 8
  %7 = atomicrmw add ptr %5, i64 %6 monotonic, align 8
  %8 = add i64 %7, %6
  store i64 %8, ptr %4, align 8
  %9 = load i64, ptr %4, align 8, !tbaa !77
  ret i64 %9
}

; Function Attrs: mustprogress nounwind uwtable
define linkonce_odr hidden noundef zeroext i1 @_ZNSt3__114__shared_count16__release_sharedB8ne210000Ev(ptr noundef nonnull align 8 dereferenceable(16) %0) #0 comdat align 2 {
  %2 = alloca i1, align 1
  %3 = alloca ptr, align 8
  store ptr %0, ptr %3, align 8, !tbaa !60
  %4 = load ptr, ptr %3, align 8
  %5 = getelementptr inbounds nuw %"class.std::__1::__shared_count", ptr %4, i32 0, i32 1
  %6 = call noundef i64 @_ZNSt3__134__libcpp_atomic_refcount_decrementB8ne210000IlEET_RS1_(ptr noundef nonnull align 8 dereferenceable(8) %5) #2
  %7 = icmp eq i64 %6, -1
  br i1 %7, label %8, label %12

8:                                                ; preds = %1
  %9 = load ptr, ptr %4, align 8, !tbaa !20
  %10 = getelementptr inbounds ptr, ptr %9, i64 2
  %11 = load ptr, ptr %10, align 8
  call void %11(ptr noundef nonnull align 8 dereferenceable(16) %4) #2
  store i1 true, ptr %2, align 1
  br label %13

12:                                               ; preds = %1
  store i1 false, ptr %2, align 1
  br label %13

13:                                               ; preds = %12, %8
  %14 = load i1, ptr %2, align 1
  ret i1 %14
}

; Function Attrs: mustprogress nounwind uwtable
define linkonce_odr hidden void @_ZNSt3__114__shared_count12__add_sharedB8ne210000Ev(ptr noundef nonnull align 8 dereferenceable(16) %0) #0 comdat align 2 {
  %2 = alloca ptr, align 8
  store ptr %0, ptr %2, align 8, !tbaa !60
  %3 = load ptr, ptr %2, align 8
  %4 = getelementptr inbounds nuw %"class.std::__1::__shared_count", ptr %3, i32 0, i32 1
  %5 = call noundef i64 @_ZNSt3__134__libcpp_atomic_refcount_incrementB8ne210000IlEET_RS1_(ptr noundef nonnull align 8 dereferenceable(8) %4) #2
  ret void
}

; Function Attrs: mustprogress nounwind uwtable
define dso_local noundef nonnull align 8 dereferenceable(8) ptr @_ZNSt3__113shared_futureIvEaSERKS1_(ptr noundef nonnull align 8 dereferenceable(8) %0, ptr noundef nonnull align 8 dereferenceable(8) %1) #0 align 2 {
  %3 = alloca ptr, align 8
  %4 = alloca ptr, align 8
  store ptr %0, ptr %3, align 8, !tbaa !71
  store ptr %1, ptr %4, align 8, !tbaa !71
  %5 = load ptr, ptr %3, align 8
  %6 = load ptr, ptr %4, align 8, !tbaa !71
  %7 = getelementptr inbounds nuw %"class.std::__1::shared_future", ptr %6, i32 0, i32 0
  %8 = load ptr, ptr %7, align 8, !tbaa !73
  %9 = icmp ne ptr %8, null
  br i1 %9, label %10, label %14

10:                                               ; preds = %2
  %11 = load ptr, ptr %4, align 8, !tbaa !71
  %12 = getelementptr inbounds nuw %"class.std::__1::shared_future", ptr %11, i32 0, i32 0
  %13 = load ptr, ptr %12, align 8, !tbaa !73
  call void @_ZNSt3__114__shared_count12__add_sharedB8ne210000Ev(ptr noundef nonnull align 8 dereferenceable(16) %13) #2
  br label %14

14:                                               ; preds = %10, %2
  %15 = getelementptr inbounds nuw %"class.std::__1::shared_future", ptr %5, i32 0, i32 0
  %16 = load ptr, ptr %15, align 8, !tbaa !73
  %17 = icmp ne ptr %16, null
  br i1 %17, label %18, label %22

18:                                               ; preds = %14
  %19 = getelementptr inbounds nuw %"class.std::__1::shared_future", ptr %5, i32 0, i32 0
  %20 = load ptr, ptr %19, align 8, !tbaa !73
  %21 = call noundef zeroext i1 @_ZNSt3__114__shared_count16__release_sharedB8ne210000Ev(ptr noundef nonnull align 8 dereferenceable(16) %20) #2
  br label %22

22:                                               ; preds = %18, %14
  %23 = load ptr, ptr %4, align 8, !tbaa !71
  %24 = getelementptr inbounds nuw %"class.std::__1::shared_future", ptr %23, i32 0, i32 0
  %25 = load ptr, ptr %24, align 8, !tbaa !73
  %26 = getelementptr inbounds nuw %"class.std::__1::shared_future", ptr %5, i32 0, i32 0
  store ptr %25, ptr %26, align 8, !tbaa !73
  ret ptr %5
}