; Function Attrs: mustprogress nounwind uwtable
define dso_local noundef nonnull align 8 dereferenceable(8) ptr @_ZNSt3__113shared_futureIvEaSERKS1_(ptr noundef nonnull returned align 8 captures(ret: address, provenance) dereferenceable(8) %0, ptr noundef nonnull readonly align 8 captures(none) dereferenceable(8) %1) local_unnamed_addr #8 align 2 {
  %3 = load ptr, ptr %1, align 8, !tbaa !44
  %.not = icmp eq ptr %3, null
  br i1 %.not, label %7, label %4

4:                                                ; preds = %2
  %5 = getelementptr inbounds nuw i8, ptr %3, i64 8
  %6 = atomicrmw add ptr %5, i64 1 monotonic, align 8
  br label %7

7:                                                ; preds = %4, %2
  %8 = load ptr, ptr %0, align 8, !tbaa !44
  %.not5 = icmp eq ptr %8, null
  br i1 %.not5, label %_ZNSt3__114__shared_count16__release_sharedB8ne210000Ev.exit, label %9

9:                                                ; preds = %7
  %10 = getelementptr inbounds nuw i8, ptr %8, i64 8
  %11 = atomicrmw add ptr %10, i64 -1 acq_rel, align 8
  %12 = icmp eq i64 %11, 0
  br i1 %12, label %13, label %_ZNSt3__114__shared_count16__release_sharedB8ne210000Ev.exit

13:                                               ; preds = %9
  %14 = load ptr, ptr %8, align 8, !tbaa !8
  %15 = getelementptr inbounds nuw i8, ptr %14, i64 16
  %16 = load ptr, ptr %15, align 8
  tail call void %16(ptr noundef nonnull align 8 dereferenceable(16) %8) #21
  br label %_ZNSt3__114__shared_count16__release_sharedB8ne210000Ev.exit

_ZNSt3__114__shared_count16__release_sharedB8ne210000Ev.exit: ; preds = %13, %9, %7
  %17 = load ptr, ptr %1, align 8, !tbaa !44
  store ptr %17, ptr %0, align 8, !tbaa !44
  ret ptr %0
}